target datalayout = "e-m:e-p270:32:32-p271:32:32-p272:64:64-i64:64-i128:128-f80:128-n8:16:32:64-S128"
target triple = "x86_64-pc-linux-gnu"

@.str = private unnamed_addr constant [33 x i8] c"\0A2D elliptic PDE on unit square\0A\00", align 1
@.str.1 = private unnamed_addr constant [48 x i8] c"   d^2 u / dx^2 + d^2 u / dy^2 = u^3 - u + 2.0\0A\00", align 1
@.str.2 = private unnamed_addr constant [47 x i8] c" + homogeneous Dirichlet boundary conditions\0A\0A\00", align 1
@.str.3 = private unnamed_addr constant [82 x i8] c"Solution method: Anderson accelerated Picard iteration with SPGMR linear solver.\0A\00", align 1
@.str.4 = private unnamed_addr constant [34 x i8] c"Problem size: %2ld x %2ld = %4ld\0A\00", align 1
@.str.5 = private unnamed_addr constant [18 x i8] c"SUNContext_Create\00", align 1
@.str.6 = private unnamed_addr constant [14 x i8] c"N_VNew_Serial\00", align 1
@.str.7 = private unnamed_addr constant [10 x i8] c"KINCreate\00", align 1
@.str.8 = private unnamed_addr constant [10 x i8] c"KINSetMAA\00", align 1
@.str.9 = private unnamed_addr constant [8 x i8] c"KINInit\00", align 1
@.str.10 = private unnamed_addr constant [18 x i8] c"KINSetFuncNormTol\00", align 1
@.str.11 = private unnamed_addr constant [11 x i8] c"KINSOL.log\00", align 1
@.str.12 = private unnamed_addr constant [2 x i8] c"w\00", align 1
@.str.13 = private unnamed_addr constant [16 x i8] c"SUNLinSol_SPGMR\00", align 1
@.str.14 = private unnamed_addr constant [19 x i8] c"KINSetLinearSolver\00", align 1
@.str.15 = private unnamed_addr constant [20 x i8] c"KINSetJacTimesVecFn\00", align 1
@.str.16 = private unnamed_addr constant [7 x i8] c"KINSol\00", align 1
@.str.17 = private unnamed_addr constant [15 x i8] c"KINGetfuncNorm\00", align 1
@.str.18 = private unnamed_addr constant [35 x i8] c"\0AComputed solution (||F|| = %g):\0A\0A\00", align 1
@stderr = external global ptr, align 8
@.str.40 = private unnamed_addr constant [55 x i8] c"\0ASUNDIALS_ERROR: %s() failed - returned NULL pointer\0A\0A\00", align 1
@.str.41 = private unnamed_addr constant [48 x i8] c"\0ASUNDIALS_ERROR: %s() failed with retval = %d\0A\0A\00", align 1
@.str.42 = private unnamed_addr constant [53 x i8] c"\0AMEMORY_ERROR: %s() failed - returned NULL pointer\0A\0A\00", align 1

; Function Attrs: nounwind uwtable
define internal i32 @check_retval(ptr noundef %0, ptr noundef %1, i32 noundef %2) #0 {
  %4 = alloca i32, align 4
  %5 = alloca ptr, align 8
  %6 = alloca ptr, align 8
  %7 = alloca i32, align 4
  %8 = alloca ptr, align 8
  %9 = alloca i32, align 4
  store ptr %0, ptr %5, align 8, !tbaa !9
  store ptr %1, ptr %6, align 8, !tbaa !20
  store i32 %2, ptr %7, align 4, !tbaa !12
  call void @llvm.lifetime.start.p0(i64 8, ptr %8) #5
  %10 = load i32, ptr %7, align 4, !tbaa !12
  %11 = icmp eq i32 %10, 0
  br i1 %11, label %12, label %19

12:                                               ; preds = %3
  %13 = load ptr, ptr %5, align 8, !tbaa !9
  %14 = icmp eq ptr %13, null
  br i1 %14, label %15, label %19

15:                                               ; preds = %12
  %16 = load ptr, ptr @stderr, align 8, !tbaa !18
  %17 = load ptr, ptr %6, align 8, !tbaa !20
  %18 = call i32 (ptr, ptr, ...) @fprintf(ptr noundef %16, ptr noundef @.str.40, ptr noundef %17) #5
  store i32 1, ptr %4, align 4
  store i32 1, ptr %9, align 4
  br label %47

19:                                               ; preds = %12, %3
  %20 = load i32, ptr %7, align 4, !tbaa !12
  %21 = icmp eq i32 %20, 1
  br i1 %21, label %22, label %34

22:                                               ; preds = %19
  %23 = load ptr, ptr %5, align 8, !tbaa !9
  store ptr %23, ptr %8, align 8, !tbaa !22
  %24 = load ptr, ptr %8, align 8, !tbaa !22
  %25 = load i32, ptr %24, align 4, !tbaa !12
  %26 = icmp slt i32 %25, 0
  br i1 %26, label %27, label %33

27:                                               ; preds = %22
  %28 = load ptr, ptr @stderr, align 8, !tbaa !18
  %29 = load ptr, ptr %6, align 8, !tbaa !20
  %30 = load ptr, ptr %8, align 8, !tbaa !22
  %31 = load i32, ptr %30, align 4, !tbaa !12
  %32 = call i32 (ptr, ptr, ...) @fprintf(ptr noundef %28, ptr noundef @.str.41, ptr noundef %29, i32 noundef %31) #5
  store i32 1, ptr %4, align 4
  store i32 1, ptr %9, align 4
  br label %47

33:                                               ; preds = %22
  br label %45

34:                                               ; preds = %19
  %35 = load i32, ptr %7, align 4, !tbaa !12
  %36 = icmp eq i32 %35, 2
  br i1 %36, label %37, label %44

37:                                               ; preds = %34
  %38 = load ptr, ptr %5, align 8, !tbaa !9
  %39 = icmp eq ptr %38, null
  br i1 %39, label %40, label %44

40:                                               ; preds = %37
  %41 = load ptr, ptr @stderr, align 8, !tbaa !18
  %42 = load ptr, ptr %6, align 8, !tbaa !20
  %43 = call i32 (ptr, ptr, ...) @fprintf(ptr noundef %41, ptr noundef @.str.42, ptr noundef %42) #5
  store i32 1, ptr %4, align 4
  store i32 1, ptr %9, align 4
  br label %47

44:                                               ; preds = %37, %34
  br label %45

45:                                               ; preds = %44, %33
  br label %46

46:                                               ; preds = %45
  store i32 0, ptr %4, align 4
  store i32 1, ptr %9, align 4
  br label %47

47:                                               ; preds = %46, %40, %27, %15
  call void @llvm.lifetime.end.p0(i64 8, ptr %8) #5
  %48 = load i32, ptr %4, align 4
  ret i32 %48
}

; Function Attrs: nounwind uwtable
define dso_local i32 @main() #0 {
  %1 = alloca i32, align 4
  %2 = alloca ptr, align 8
  %3 = alloca double, align 8
  %4 = alloca double, align 8
  %5 = alloca ptr, align 8
  %6 = alloca ptr, align 8
  %7 = alloca i32, align 4
  %8 = alloca ptr, align 8
  %9 = alloca ptr, align 8
  %10 = alloca ptr, align 8
  %11 = alloca i32, align 4
  store i32 0, ptr %1, align 4
  call void @llvm.lifetime.start.p0(i64 8, ptr %2) #5
  call void @llvm.lifetime.start.p0(i64 8, ptr %3) #5
  call void @llvm.lifetime.start.p0(i64 8, ptr %4) #5
  call void @llvm.lifetime.start.p0(i64 8, ptr %5) #5
  call void @llvm.lifetime.start.p0(i64 8, ptr %6) #5
  call void @llvm.lifetime.start.p0(i64 4, ptr %7) #5
  call void @llvm.lifetime.start.p0(i64 8, ptr %8) #5
  call void @llvm.lifetime.start.p0(i64 8, ptr %9) #5
  call void @llvm.lifetime.start.p0(i64 8, ptr %10) #5
  store ptr null, ptr %6, align 8, !tbaa !4
  store ptr null, ptr %5, align 8, !tbaa !4
  store ptr null, ptr %8, align 8, !tbaa !9
  store ptr null, ptr %9, align 8, !tbaa !10
  %12 = call i32 (ptr, ...) @printf(ptr noundef @.str)
  %13 = call i32 (ptr, ...) @printf(ptr noundef @.str.1)
  %14 = call i32 (ptr, ...) @printf(ptr noundef @.str.2)
  %15 = call i32 (ptr, ...) @printf(ptr noundef @.str.3)
  %16 = call i32 (ptr, ...) @printf(ptr noundef @.str.4, i64 noundef 31, i64 noundef 31, i64 noundef 961)
  %17 = call i32 @SUNContext_Create(i32 noundef 0, ptr noundef %2)
  store i32 %17, ptr %7, align 4, !tbaa !12
  %18 = call i32 @check_retval(ptr noundef %7, ptr noundef @.str.5, i32 noundef 1)
  %19 = icmp ne i32 %18, 0
  br i1 %19, label %20, label %21

20:                                               ; preds = %0
  store i32 1, ptr %1, align 4
  store i32 1, ptr %11, align 4
  br label %116

21:                                               ; preds = %0
  %22 = load ptr, ptr %2, align 8, !tbaa !14
  %23 = call ptr @N_VNew_Serial(i64 noundef 961, ptr noundef %22)
  store ptr %23, ptr %5, align 8, !tbaa !4
  %24 = load ptr, ptr %5, align 8, !tbaa !4
  %25 = call i32 @check_retval(ptr noundef %24, ptr noundef @.str.6, i32 noundef 0)
  %26 = icmp ne i32 %25, 0
  br i1 %26, label %27, label %28

27:                                               ; preds = %21
  store i32 1, ptr %1, align 4
  store i32 1, ptr %11, align 4
  br label %116

28:                                               ; preds = %21
  %29 = load ptr, ptr %2, align 8, !tbaa !14
  %30 = call ptr @N_VNew_Serial(i64 noundef 961, ptr noundef %29)
  store ptr %30, ptr %6, align 8, !tbaa !4
  %31 = load ptr, ptr %6, align 8, !tbaa !4
  %32 = call i32 @check_retval(ptr noundef %31, ptr noundef @.str.6, i32 noundef 0)
  %33 = icmp ne i32 %32, 0
  br i1 %33, label %34, label %35

34:                                               ; preds = %28
  store i32 1, ptr %1, align 4
  store i32 1, ptr %11, align 4
  br label %116

35:                                               ; preds = %28
  %36 = load ptr, ptr %2, align 8, !tbaa !14
  %37 = call ptr @KINCreate(ptr noundef %36)
  store ptr %37, ptr %8, align 8, !tbaa !9
  %38 = load ptr, ptr %8, align 8, !tbaa !9
  %39 = call i32 @check_retval(ptr noundef %38, ptr noundef @.str.7, i32 noundef 0)
  %40 = icmp ne i32 %39, 0
  br i1 %40, label %41, label %42

41:                                               ; preds = %35
  store i32 1, ptr %1, align 4
  store i32 1, ptr %11, align 4
  br label %116

42:                                               ; preds = %35
  %43 = load ptr, ptr %8, align 8, !tbaa !9
  %44 = call i32 @KINSetMAA(ptr noundef %43, i64 noundef 3)
  store i32 %44, ptr %7, align 4, !tbaa !12
  %45 = call i32 @check_retval(ptr noundef %7, ptr noundef @.str.8, i32 noundef 1)
  %46 = icmp ne i32 %45, 0
  br i1 %46, label %47, label %48

47:                                               ; preds = %42
  store i32 1, ptr %1, align 4
  store i32 1, ptr %11, align 4
  br label %116

48:                                               ; preds = %42
  %49 = load ptr, ptr %8, align 8, !tbaa !9
  %50 = load ptr, ptr %5, align 8, !tbaa !4
  %51 = call i32 @KINInit(ptr noundef %49, ptr noundef @func, ptr noundef %50)
  store i32 %51, ptr %7, align 4, !tbaa !12
  %52 = call i32 @check_retval(ptr noundef %7, ptr noundef @.str.9, i32 noundef 1)
  %53 = icmp ne i32 %52, 0
  br i1 %53, label %54, label %55

54:                                               ; preds = %48
  store i32 1, ptr %1, align 4
  store i32 1, ptr %11, align 4
  br label %116

55:                                               ; preds = %48
  store double 0x3D719799812DEA11, ptr %3, align 8, !tbaa !16
  %56 = load ptr, ptr %8, align 8, !tbaa !9
  %57 = load double, ptr %3, align 8, !tbaa !16
  %58 = call i32 @KINSetFuncNormTol(ptr noundef %56, double noundef %57)
  store i32 %58, ptr %7, align 4, !tbaa !12
  %59 = call i32 @check_retval(ptr noundef %7, ptr noundef @.str.10, i32 noundef 1)
  %60 = icmp ne i32 %59, 0
  br i1 %60, label %61, label %62

61:                                               ; preds = %55
  store i32 1, ptr %1, align 4
  store i32 1, ptr %11, align 4
  br label %116

62:                                               ; preds = %55
  %63 = call noalias ptr @fopen(ptr noundef @.str.11, ptr noundef @.str.12)
  store ptr %63, ptr %10, align 8, !tbaa !18
  %64 = load ptr, ptr %5, align 8, !tbaa !4
  %65 = load ptr, ptr %2, align 8, !tbaa !14
  %66 = call ptr @SUNLinSol_SPGMR(ptr noundef %64, i32 noundef 0, i32 noundef 10, ptr noundef %65)
  store ptr %66, ptr %9, align 8, !tbaa !10
  %67 = load ptr, ptr %9, align 8, !tbaa !10
  %68 = call i32 @check_retval(ptr noundef %67, ptr noundef @.str.13, i32 noundef 0)
  %69 = icmp ne i32 %68, 0
  br i1 %69, label %70, label %71

70:                                               ; preds = %62
  store i32 1, ptr %1, align 4
  store i32 1, ptr %11, align 4
  br label %116

71:                                               ; preds = %62
  %72 = load ptr, ptr %8, align 8, !tbaa !9
  %73 = load ptr, ptr %9, align 8, !tbaa !10
  %74 = call i32 @KINSetLinearSolver(ptr noundef %72, ptr noundef %73, ptr noundef null)
  store i32 %74, ptr %7, align 4, !tbaa !12
  %75 = call i32 @check_retval(ptr noundef %7, ptr noundef @.str.14, i32 noundef 1)
  %76 = icmp ne i32 %75, 0
  br i1 %76, label %77, label %78

77:                                               ; preds = %71
  store i32 1, ptr %1, align 4
  store i32 1, ptr %11, align 4
  br label %116

78:                                               ; preds = %71
  %79 = load ptr, ptr %8, align 8, !tbaa !9
  %80 = call i32 @KINSetJacTimesVecFn(ptr noundef %79, ptr noundef @jactimes)
  store i32 %80, ptr %7, align 4, !tbaa !12
  %81 = call i32 @check_retval(ptr noundef %7, ptr noundef @.str.15, i32 noundef 1)
  %82 = icmp ne i32 %81, 0
  br i1 %82, label %83, label %84

83:                                               ; preds = %78
  store i32 1, ptr %1, align 4
  store i32 1, ptr %11, align 4
  br label %116

84:                                               ; preds = %78
  %85 = load ptr, ptr %5, align 8, !tbaa !4
  call void @N_VConst(double noundef 0.000000e+00, ptr noundef %85)
  %86 = load ptr, ptr %5, align 8, !tbaa !4
  %87 = call ptr @N_VGetArrayPointer(ptr noundef %86)
  %88 = getelementptr inbounds double, ptr %87, i64 32
  store double 1.000000e+00, ptr %88, align 8, !tbaa !16
  %89 = load ptr, ptr %6, align 8, !tbaa !4
  call void @N_VConst(double noundef 1.000000e+00, ptr noundef %89)
  %90 = load ptr, ptr %8, align 8, !tbaa !9
  %91 = load ptr, ptr %5, align 8, !tbaa !4
  %92 = load ptr, ptr %6, align 8, !tbaa !4
  %93 = load ptr, ptr %6, align 8, !tbaa !4
  %94 = call i32 @KINSol(ptr noundef %90, ptr noundef %91, i32 noundef 2, ptr noundef %92, ptr noundef %93)
  store i32 %94, ptr %7, align 4, !tbaa !12
  %95 = call i32 @check_retval(ptr noundef %7, ptr noundef @.str.16, i32 noundef 1)
  %96 = icmp ne i32 %95, 0
  br i1 %96, label %97, label %98

97:                                               ; preds = %84
  store i32 1, ptr %1, align 4
  store i32 1, ptr %11, align 4
  br label %116

98:                                               ; preds = %84
  %99 = load ptr, ptr %8, align 8, !tbaa !9
  %100 = call i32 @KINGetFuncNorm(ptr noundef %99, ptr noundef %4)
  store i32 %100, ptr %7, align 4, !tbaa !12
  %101 = call i32 @check_retval(ptr noundef %7, ptr noundef @.str.17, i32 noundef 1)
  %102 = icmp ne i32 %101, 0
  br i1 %102, label %103, label %104

103:                                              ; preds = %98
  store i32 1, ptr %1, align 4
  store i32 1, ptr %11, align 4
  br label %116

104:                                              ; preds = %98
  %105 = load double, ptr %4, align 8, !tbaa !16
  %106 = call i32 (ptr, ...) @printf(ptr noundef @.str.18, double noundef %105)
  %107 = load ptr, ptr %5, align 8, !tbaa !4
  call void @PrintOutput(ptr noundef %107)
  %108 = load ptr, ptr %8, align 8, !tbaa !9
  call void @PrintFinalStats(ptr noundef %108)
  %109 = load ptr, ptr %10, align 8, !tbaa !18
  %110 = call i32 @fclose(ptr noundef %109)
  %111 = load ptr, ptr %5, align 8, !tbaa !4
  call void @N_VDestroy(ptr noundef %111)
  %112 = load ptr, ptr %6, align 8, !tbaa !4
  call void @N_VDestroy(ptr noundef %112)
  call void @KINFree(ptr noundef %8)
  %113 = load ptr, ptr %9, align 8, !tbaa !10
  %114 = call i32 @SUNLinSolFree(ptr noundef %113)
  %115 = call i32 @SUNContext_Free(ptr noundef %2)
  store i32 0, ptr %1, align 4
  store i32 1, ptr %11, align 4
  br label %116

116:                                              ; preds = %104, %103, %97, %83, %77, %70, %61, %54, %47, %41, %34, %27, %20
  call void @llvm.lifetime.end.p0(i64 8, ptr %10) #5
  call void @llvm.lifetime.end.p0(i64 8, ptr %9) #5
  call void @llvm.lifetime.end.p0(i64 8, ptr %8) #5
  call void @llvm.lifetime.end.p0(i64 4, ptr %7) #5
  call void @llvm.lifetime.end.p0(i64 8, ptr %6) #5
  call void @llvm.lifetime.end.p0(i64 8, ptr %5) #5
  call void @llvm.lifetime.end.p0(i64 8, ptr %4) #5
  call void @llvm.lifetime.end.p0(i64 8, ptr %3) #5
  call void @llvm.lifetime.end.p0(i64 8, ptr %2) #5
  %117 = load i32, ptr %1, align 4
  ret i32 %117
}