; Function Attrs: nounwind uwtable
define dso_local range(i32 0, 2) i32 @main() local_unnamed_addr #0 {
  %1 = alloca ptr, align 8
  %2 = alloca double, align 8
  %3 = alloca ptr, align 8
  call void @llvm.lifetime.start.p0(i64 8, ptr nonnull %1) #6
  call void @llvm.lifetime.start.p0(i64 8, ptr nonnull %2) #6
  call void @llvm.lifetime.start.p0(i64 8, ptr nonnull %3) #6
  %puts = tail call i32 @puts(ptr nonnull dereferenceable(1) @str)
  %puts18 = tail call i32 @puts(ptr nonnull dereferenceable(1) @str.1)
  %puts19 = tail call i32 @puts(ptr nonnull dereferenceable(1) @str.2)
  %puts20 = tail call i32 @puts(ptr nonnull dereferenceable(1) @str.3)
  %4 = tail call i32 (ptr, ...) @printf(ptr noundef nonnull dereferenceable(1) @.str.4, i64 noundef 31, i64 noundef 31, i64 noundef 961)
  %5 = call i32 @SUNContext_Create(i32 noundef 0, ptr noundef nonnull %1) #6
  %6 = icmp slt i32 %5, 0
  br i1 %6, label %check_retval.exit, label %9

check_retval.exit:                                ; preds = %0
  %7 = load ptr, ptr @stderr, align 8, !tbaa !4
  %8 = call i32 (ptr, ptr, ...) @fprintf(ptr noundef %7, ptr noundef nonnull @.str.41, ptr noundef nonnull @.str.5, i32 noundef %5) #7
  br label %77

9:                                                ; preds = %0
  %10 = load ptr, ptr %1, align 8, !tbaa !9
  %11 = call ptr @N_VNew_Serial(i64 noundef 961, ptr noundef %10) #6
  %12 = icmp eq ptr %11, null
  br i1 %12, label %check_retval.exit33, label %15

check_retval.exit33:                              ; preds = %9
  %13 = load ptr, ptr @stderr, align 8, !tbaa !4
  %14 = call i32 (ptr, ptr, ...) @fprintf(ptr noundef %13, ptr noundef nonnull @.str.40, ptr noundef nonnull @.str.6) #7
  br label %77

15:                                               ; preds = %9
  %16 = load ptr, ptr %1, align 8, !tbaa !9
  %17 = call ptr @N_VNew_Serial(i64 noundef 961, ptr noundef %16) #6
  %18 = icmp eq ptr %17, null
  br i1 %18, label %check_retval.exit35, label %21

check_retval.exit35:                              ; preds = %15
  %19 = load ptr, ptr @stderr, align 8, !tbaa !4
  %20 = call i32 (ptr, ptr, ...) @fprintf(ptr noundef %19, ptr noundef nonnull @.str.40, ptr noundef nonnull @.str.6) #7
  br label %77

21:                                               ; preds = %15
  %22 = load ptr, ptr %1, align 8, !tbaa !9
  %23 = call ptr @KINCreate(ptr noundef %22) #6
  store ptr %23, ptr %3, align 8, !tbaa !11
  %24 = icmp eq ptr %23, null
  br i1 %24, label %check_retval.exit37, label %27

check_retval.exit37:                              ; preds = %21
  %25 = load ptr, ptr @stderr, align 8, !tbaa !4
  %26 = call i32 (ptr, ptr, ...) @fprintf(ptr noundef %25, ptr noundef nonnull @.str.40, ptr noundef nonnull @.str.7) #7
  br label %77

27:                                               ; preds = %21
  %28 = call i32 @KINSetMAA(ptr noundef nonnull %23, i64 noundef 3) #6
  %29 = icmp slt i32 %28, 0
  br i1 %29, label %check_retval.exit39, label %32

check_retval.exit39:                              ; preds = %27
  %30 = load ptr, ptr @stderr, align 8, !tbaa !4
  %31 = call i32 (ptr, ptr, ...) @fprintf(ptr noundef %30, ptr noundef nonnull @.str.41, ptr noundef nonnull @.str.8, i32 noundef %28) #7
  br label %77

32:                                               ; preds = %27
  %33 = call i32 @KINInit(ptr noundef nonnull %23, ptr noundef nonnull @func, ptr noundef nonnull %11) #6
  %34 = icmp slt i32 %33, 0
  br i1 %34, label %check_retval.exit41, label %37

check_retval.exit41:                              ; preds = %32
  %35 = load ptr, ptr @stderr, align 8, !tbaa !4
  %36 = call i32 (ptr, ptr, ...) @fprintf(ptr noundef %35, ptr noundef nonnull @.str.41, ptr noundef nonnull @.str.9, i32 noundef %33) #7
  br label %77

37:                                               ; preds = %32
  %38 = call i32 @KINSetFuncNormTol(ptr noundef nonnull %23, double noundef 0x3D719799812DEA11) #6
  %39 = icmp slt i32 %38, 0
  br i1 %39, label %check_retval.exit43, label %42

check_retval.exit43:                              ; preds = %37
  %40 = load ptr, ptr @stderr, align 8, !tbaa !4
  %41 = call i32 (ptr, ptr, ...) @fprintf(ptr noundef %40, ptr noundef nonnull @.str.41, ptr noundef nonnull @.str.10, i32 noundef %38) #7
  br label %77

42:                                               ; preds = %37
  %43 = call noalias ptr @fopen(ptr noundef nonnull @.str.11, ptr noundef nonnull @.str.12)
  %44 = load ptr, ptr %1, align 8, !tbaa !9
  %45 = call ptr @SUNLinSol_SPGMR(ptr noundef nonnull %11, i32 noundef 0, i32 noundef 10, ptr noundef %44) #6
  %46 = icmp eq ptr %45, null
  br i1 %46, label %check_retval.exit45, label %49

check_retval.exit45:                              ; preds = %42
  %47 = load ptr, ptr @stderr, align 8, !tbaa !4
  %48 = call i32 (ptr, ptr, ...) @fprintf(ptr noundef %47, ptr noundef nonnull @.str.40, ptr noundef nonnull @.str.13) #7
  br label %77

49:                                               ; preds = %42
  %50 = call i32 @KINSetLinearSolver(ptr noundef nonnull %23, ptr noundef nonnull %45, ptr noundef null) #6
  %51 = icmp slt i32 %50, 0
  br i1 %51, label %check_retval.exit47, label %54

check_retval.exit47:                              ; preds = %49
  %52 = load ptr, ptr @stderr, align 8, !tbaa !4
  %53 = call i32 (ptr, ptr, ...) @fprintf(ptr noundef %52, ptr noundef nonnull @.str.41, ptr noundef nonnull @.str.14, i32 noundef %50) #7
  br label %77

54:                                               ; preds = %49
  %55 = call i32 @KINSetJacTimesVecFn(ptr noundef nonnull %23, ptr noundef nonnull @jactimes) #6
  %56 = icmp slt i32 %55, 0
  br i1 %56, label %check_retval.exit49, label %59

check_retval.exit49:                              ; preds = %54
  %57 = load ptr, ptr @stderr, align 8, !tbaa !4
  %58 = call i32 (ptr, ptr, ...) @fprintf(ptr noundef %57, ptr noundef nonnull @.str.41, ptr noundef nonnull @.str.15, i32 noundef %55) #7
  br label %77

59:                                               ; preds = %54
  call void @N_VConst(double noundef 0.000000e+00, ptr noundef nonnull %11) #6
  %60 = call ptr @N_VGetArrayPointer(ptr noundef nonnull %11) #6
  %61 = getelementptr inbounds nuw i8, ptr %60, i64 256
  store double 1.000000e+00, ptr %61, align 8, !tbaa !12
  call void @N_VConst(double noundef 1.000000e+00, ptr noundef nonnull %17) #6
  %62 = call i32 @KINSol(ptr noundef nonnull %23, ptr noundef nonnull %11, i32 noundef 2, ptr noundef nonnull %17, ptr noundef nonnull %17) #6
  %63 = icmp slt i32 %62, 0
  br i1 %63, label %check_retval.exit51, label %66

check_retval.exit51:                              ; preds = %59
  %64 = load ptr, ptr @stderr, align 8, !tbaa !4
  %65 = call i32 (ptr, ptr, ...) @fprintf(ptr noundef %64, ptr noundef nonnull @.str.41, ptr noundef nonnull @.str.16, i32 noundef %62) #7
  br label %77

66:                                               ; preds = %59
  %67 = call i32 @KINGetFuncNorm(ptr noundef nonnull %23, ptr noundef nonnull %2) #6
  %68 = icmp slt i32 %67, 0
  br i1 %68, label %check_retval.exit53, label %71

check_retval.exit53:                              ; preds = %66
  %69 = load ptr, ptr @stderr, align 8, !tbaa !4
  %70 = call i32 (ptr, ptr, ...) @fprintf(ptr noundef %69, ptr noundef nonnull @.str.41, ptr noundef nonnull @.str.17, i32 noundef %67) #7
  br label %77

71:                                               ; preds = %66
  %72 = load double, ptr %2, align 8, !tbaa !12
  %73 = call i32 (ptr, ...) @printf(ptr noundef nonnull dereferenceable(1) @.str.18, double noundef %72)
  call fastcc void @PrintOutput(ptr noundef nonnull %11)
  call fastcc void @PrintFinalStats(ptr noundef nonnull %23)
  %74 = call i32 @fclose(ptr noundef %43)
  call void @N_VDestroy(ptr noundef nonnull %11) #6
  call void @N_VDestroy(ptr noundef nonnull %17) #6
  call void @KINFree(ptr noundef nonnull %3) #6
  %75 = call i32 @SUNLinSolFree(ptr noundef nonnull %45) #6
  %76 = call i32 @SUNContext_Free(ptr noundef nonnull %1) #6
  br label %77

77:                                               ; preds = %check_retval.exit53, %check_retval.exit51, %check_retval.exit49, %check_retval.exit47, %check_retval.exit45, %check_retval.exit43, %check_retval.exit41, %check_retval.exit39, %check_retval.exit37, %check_retval.exit35, %check_retval.exit33, %check_retval.exit, %71
  %.0 = phi i32 [ 0, %71 ], [ 1, %check_retval.exit ], [ 1, %check_retval.exit33 ], [ 1, %check_retval.exit35 ], [ 1, %check_retval.exit37 ], [ 1, %check_retval.exit39 ], [ 1, %check_retval.exit41 ], [ 1, %check_retval.exit43 ], [ 1, %check_retval.exit45 ], [ 1, %check_retval.exit47 ], [ 1, %check_retval.exit49 ], [ 1, %check_retval.exit51 ], [ 1, %check_retval.exit53 ]
  call void @llvm.lifetime.end.p0(i64 8, ptr nonnull %3) #6
  call void @llvm.lifetime.end.p0(i64 8, ptr nonnull %2) #6
  call void @llvm.lifetime.end.p0(i64 8, ptr nonnull %1) #6
  ret i32 %.0
}